target datalayout = "e-m:e-p270:32:32-p271:32:32-p272:64:64-i64:64-i128:128-f80:128-n8:16:32:64-S128"
target triple = "x86_64-pc-linux-gnu"

%struct.ForEachState = type { ptr, i32 }
%struct.List = type { i32, i32, i32, ptr, [0 x %union.ListCell] }
%union.ListCell = type { ptr }

@save_format_errnumber = internal global i32 0, align 4
@save_format_domain = internal global ptr null, align 8
@GUC_check_errdetail_string = external global ptr, align 8
@.str.12 = private unnamed_addr constant [24 x i8] c"List syntax is invalid.\00", align 1
@.str.13 = private unnamed_addr constant [7 x i8] c"stderr\00", align 1
@.str.14 = private unnamed_addr constant [7 x i8] c"csvlog\00", align 1
@.str.15 = private unnamed_addr constant [8 x i8] c"jsonlog\00", align 1
@.str.16 = private unnamed_addr constant [7 x i8] c"syslog\00", align 1
@.str.17 = private unnamed_addr constant [29 x i8] c"Unrecognized key word: \22%s\22.\00", align 1

; Function Attrs: nounwind uwtable
define dso_local void @pre_format_elog_string(i32 noundef %0, ptr noundef %1) #0 {
  %3 = alloca i32, align 4
  %4 = alloca ptr, align 8
  store i32 %0, ptr %3, align 4
  store ptr %1, ptr %4, align 8
  %5 = load i32, ptr %3, align 4
  store i32 %5, ptr @save_format_errnumber, align 4
  %6 = load ptr, ptr %4, align 8
  store ptr %6, ptr @save_format_domain, align 8
  ret void
}

; Function Attrs: nounwind uwtable
define dso_local zeroext i1 @check_log_destination(ptr noundef %0, ptr noundef %1, i32 noundef %2) #0 {
  %4 = alloca i1, align 1
  %5 = alloca ptr, align 8
  %6 = alloca ptr, align 8
  %7 = alloca i32, align 4
  %8 = alloca ptr, align 8
  %9 = alloca ptr, align 8
  %10 = alloca ptr, align 8
  %11 = alloca i32, align 4
  %12 = alloca ptr, align 8
  %13 = alloca i32, align 4
  %14 = alloca %struct.ForEachState, align 8
  %15 = alloca ptr, align 8
  store ptr %0, ptr %5, align 8
  store ptr %1, ptr %6, align 8
  store i32 %2, ptr %7, align 4
  call void @llvm.lifetime.start.p0(i64 8, ptr %8) #16
  call void @llvm.lifetime.start.p0(i64 8, ptr %9) #16
  call void @llvm.lifetime.start.p0(i64 8, ptr %10) #16
  call void @llvm.lifetime.start.p0(i64 4, ptr %11) #16
  store i32 0, ptr %11, align 4
  call void @llvm.lifetime.start.p0(i64 8, ptr %12) #16
  %16 = load ptr, ptr %5, align 8
  %17 = load ptr, ptr %16, align 8
  %18 = call ptr @pstrdup(ptr noundef %17)
  store ptr %18, ptr %8, align 8
  %19 = load ptr, ptr %8, align 8
  %20 = call zeroext i1 @SplitIdentifierString(ptr noundef %19, i8 noundef signext 44, ptr noundef %9)
  br i1 %20, label %27, label %21

21:                                               ; preds = %3
  %22 = call ptr @__errno_location() #19
  %23 = load i32, ptr %22, align 4
  call void @pre_format_elog_string(i32 noundef %23, ptr noundef null)
  %24 = call ptr (ptr, ...) @format_elog_string(ptr noundef @.str.12)
  store ptr %24, ptr @GUC_check_errdetail_string, align 8
  %25 = load ptr, ptr %8, align 8
  call void @pfree(ptr noundef %25)
  %26 = load ptr, ptr %9, align 8
  call void @list_free(ptr noundef %26)
  store i1 false, ptr %4, align 1
  store i32 1, ptr %13, align 4
  br label %116

27:                                               ; preds = %3
  call void @llvm.lifetime.start.p0(i64 16, ptr %14) #16
  %28 = getelementptr inbounds nuw %struct.ForEachState, ptr %14, i32 0, i32 0
  %29 = load ptr, ptr %9, align 8
  store ptr %29, ptr %28, align 8
  %30 = getelementptr inbounds nuw %struct.ForEachState, ptr %14, i32 0, i32 1
  store i32 0, ptr %30, align 8
  %31 = getelementptr i8, ptr %14, i64 12
  call void @llvm.memset.p0.i64(ptr align 4 %31, i8 0, i64 4, i1 false)
  br label %32

32:                                               ; preds = %102, %27
  %33 = getelementptr inbounds nuw %struct.ForEachState, ptr %14, i32 0, i32 0
  %34 = load ptr, ptr %33, align 8
  %35 = icmp ne ptr %34, null
  br i1 %35, label %36, label %53

36:                                               ; preds = %32
  %37 = getelementptr inbounds nuw %struct.ForEachState, ptr %14, i32 0, i32 1
  %38 = load i32, ptr %37, align 8
  %39 = getelementptr inbounds nuw %struct.ForEachState, ptr %14, i32 0, i32 0
  %40 = load ptr, ptr %39, align 8
  %41 = getelementptr inbounds nuw %struct.List, ptr %40, i32 0, i32 1
  %42 = load i32, ptr %41, align 4
  %43 = icmp slt i32 %38, %42
  br i1 %43, label %44, label %53

44:                                               ; preds = %36
  %45 = getelementptr inbounds nuw %struct.ForEachState, ptr %14, i32 0, i32 0
  %46 = load ptr, ptr %45, align 8
  %47 = getelementptr inbounds nuw %struct.List, ptr %46, i32 0, i32 3
  %48 = load ptr, ptr %47, align 8
  %49 = getelementptr inbounds nuw %struct.ForEachState, ptr %14, i32 0, i32 1
  %50 = load i32, ptr %49, align 8
  %51 = sext i32 %50 to i64
  %52 = getelementptr inbounds %union.ListCell, ptr %48, i64 %51
  store ptr %52, ptr %10, align 8
  br label %54

53:                                               ; preds = %36, %32
  store ptr null, ptr %10, align 8
  br label %54

54:                                               ; preds = %53, %44
  %55 = phi i32 [ 1, %44 ], [ 0, %53 ]
  %56 = icmp ne i32 %55, 0
  br i1 %56, label %58, label %57

57:                                               ; preds = %54
  store i32 2, ptr %13, align 4
  br label %106

58:                                               ; preds = %54
  call void @llvm.lifetime.start.p0(i64 8, ptr %15) #16
  %59 = load ptr, ptr %10, align 8
  %60 = load ptr, ptr %59, align 8
  store ptr %60, ptr %15, align 8
  %61 = load ptr, ptr %15, align 8
  %62 = call i32 @pg_strcasecmp(ptr noundef %61, ptr noundef @.str.13)
  %63 = icmp eq i32 %62, 0
  br i1 %63, label %64, label %67

64:                                               ; preds = %58
  %65 = load i32, ptr %11, align 4
  %66 = or i32 %65, 1
  store i32 %66, ptr %11, align 4
  br label %98

67:                                               ; preds = %58
  %68 = load ptr, ptr %15, align 8
  %69 = call i32 @pg_strcasecmp(ptr noundef %68, ptr noundef @.str.14)
  %70 = icmp eq i32 %69, 0
  br i1 %70, label %71, label %74

71:                                               ; preds = %67
  %72 = load i32, ptr %11, align 4
  %73 = or i32 %72, 8
  store i32 %73, ptr %11, align 4
  br label %97

74:                                               ; preds = %67
  %75 = load ptr, ptr %15, align 8
  %76 = call i32 @pg_strcasecmp(ptr noundef %75, ptr noundef @.str.15)
  %77 = icmp eq i32 %76, 0
  br i1 %77, label %78, label %81

78:                                               ; preds = %74
  %79 = load i32, ptr %11, align 4
  %80 = or i32 %79, 16
  store i32 %80, ptr %11, align 4
  br label %96

81:                                               ; preds = %74
  %82 = load ptr, ptr %15, align 8
  %83 = call i32 @pg_strcasecmp(ptr noundef %82, ptr noundef @.str.16)
  %84 = icmp eq i32 %83, 0
  br i1 %84, label %85, label %88

85:                                               ; preds = %81
  %86 = load i32, ptr %11, align 4
  %87 = or i32 %86, 2
  store i32 %87, ptr %11, align 4
  br label %95

88:                                               ; preds = %81
  %89 = call ptr @__errno_location() #19
  %90 = load i32, ptr %89, align 4
  call void @pre_format_elog_string(i32 noundef %90, ptr noundef null)
  %91 = load ptr, ptr %15, align 8
  %92 = call ptr (ptr, ...) @format_elog_string(ptr noundef @.str.17, ptr noundef %91)
  store ptr %92, ptr @GUC_check_errdetail_string, align 8
  %93 = load ptr, ptr %8, align 8
  call void @pfree(ptr noundef %93)
  %94 = load ptr, ptr %9, align 8
  call void @list_free(ptr noundef %94)
  store i1 false, ptr %4, align 1
  store i32 1, ptr %13, align 4
  br label %99

95:                                               ; preds = %85
  br label %96

96:                                               ; preds = %95, %78
  br label %97

97:                                               ; preds = %96, %71
  br label %98

98:                                               ; preds = %97, %64
  store i32 0, ptr %13, align 4
  br label %99

99:                                               ; preds = %98, %88
  call void @llvm.lifetime.end.p0(i64 8, ptr %15) #16
  %100 = load i32, ptr %13, align 4
  switch i32 %100, label %106 [
    i32 0, label %101
  ]

101:                                              ; preds = %99
  br label %102

102:                                              ; preds = %101
  %103 = getelementptr inbounds nuw %struct.ForEachState, ptr %14, i32 0, i32 1
  %104 = load i32, ptr %103, align 8
  %105 = add i32 %104, 1
  store i32 %105, ptr %103, align 8
  br label %32, !llvm.loop !13

106:                                              ; preds = %99, %57
  call void @llvm.lifetime.end.p0(i64 16, ptr %14) #16
  %107 = load i32, ptr %13, align 4
  switch i32 %107, label %116 [
    i32 2, label %108
  ]

108:                                              ; preds = %106
  %109 = load ptr, ptr %8, align 8
  call void @pfree(ptr noundef %109)
  %110 = load ptr, ptr %9, align 8
  call void @list_free(ptr noundef %110)
  %111 = call ptr @guc_malloc(i32 noundef 21, i64 noundef 4)
  store ptr %111, ptr %12, align 8
  %112 = load i32, ptr %11, align 4
  %113 = load ptr, ptr %12, align 8
  store i32 %112, ptr %113, align 4
  %114 = load ptr, ptr %12, align 8
  %115 = load ptr, ptr %6, align 8
  store ptr %114, ptr %115, align 8
  store i1 true, ptr %4, align 1
  store i32 1, ptr %13, align 4
  br label %116

116:                                              ; preds = %108, %106, %21
  call void @llvm.lifetime.end.p0(i64 8, ptr %12) #16
  call void @llvm.lifetime.end.p0(i64 4, ptr %11) #16
  call void @llvm.lifetime.end.p0(i64 8, ptr %10) #16
  call void @llvm.lifetime.end.p0(i64 8, ptr %9) #16
  call void @llvm.lifetime.end.p0(i64 8, ptr %8) #16
  %117 = load i1, ptr %4, align 1
  ret i1 %117
}