; Function Attrs: nounwind uwtable
define dso_local noundef zeroext i1 @check_log_destination(ptr noundef readonly captures(none) %0, ptr noundef writeonly captures(none) %1, i32 noundef %2) local_unnamed_addr #3 {
  %4 = alloca ptr, align 8
  call void @llvm.lifetime.start.p0(i64 8, ptr nonnull %4) #32
  %5 = load ptr, ptr %0, align 8
  %6 = tail call ptr @pstrdup(ptr noundef %5) #32
  %7 = call zeroext i1 @SplitIdentifierString(ptr noundef %6, i8 noundef signext 44, ptr noundef nonnull %4) #32
  br i1 %7, label %13, label %8

8:                                                ; preds = %3
  %9 = tail call ptr @__errno_location() #34
  %10 = load i32, ptr %9, align 4
  store i32 %10, ptr @save_format_errnumber, align 4
  %11 = call ptr (ptr, ...) @format_elog_string(ptr noundef nonnull @.str.12)
  store ptr %11, ptr @GUC_check_errdetail_string, align 8
  call void @pfree(ptr noundef %6) #32
  %12 = load ptr, ptr %4, align 8
  call void @list_free(ptr noundef %12) #32
  br label %44

13:                                               ; preds = %3
  %14 = load ptr, ptr %4, align 8
  %.not = icmp eq ptr %14, null
  br i1 %.not, label %._crit_edge, label %.lr.ph

.lr.ph:                                           ; preds = %13
  %15 = getelementptr inbounds nuw i8, ptr %14, i64 4
  %16 = getelementptr inbounds nuw i8, ptr %14, i64 16
  %17 = load i32, ptr %15, align 4
  %18 = icmp sgt i32 %17, 0
  br i1 %18, label %.lr.ph56, label %._crit_edge

.lr.ph56:                                         ; preds = %.lr.ph, %33
  %indvars.iv = phi i64 [ %indvars.iv.next, %33 ], [ 0, %.lr.ph ]
  %.0274855 = phi i32 [ %34, %33 ], [ 0, %.lr.ph ]
  %19 = load ptr, ptr %16, align 8
  %20 = getelementptr inbounds nuw %union.ListCell, ptr %19, i64 %indvars.iv
  %21 = load ptr, ptr %20, align 8
  %22 = call i32 @pg_strcasecmp(ptr noundef %21, ptr noundef nonnull @.str.13) #32
  %23 = icmp eq i32 %22, 0
  br i1 %23, label %33, label %24

24:                                               ; preds = %.lr.ph56
  %25 = call i32 @pg_strcasecmp(ptr noundef %21, ptr noundef nonnull @.str.14) #32
  %26 = icmp eq i32 %25, 0
  br i1 %26, label %33, label %27

27:                                               ; preds = %24
  %28 = call i32 @pg_strcasecmp(ptr noundef %21, ptr noundef nonnull @.str.15) #32
  %29 = icmp eq i32 %28, 0
  br i1 %29, label %33, label %30

30:                                               ; preds = %27
  %31 = call i32 @pg_strcasecmp(ptr noundef %21, ptr noundef nonnull @.str.16) #32
  %32 = icmp eq i32 %31, 0
  br i1 %32, label %33, label %.split

33:                                               ; preds = %30, %27, %24, %.lr.ph56
  %.sink = phi i32 [ 1, %.lr.ph56 ], [ 8, %24 ], [ 16, %27 ], [ 2, %30 ]
  %34 = or i32 %.0274855, %.sink
  %indvars.iv.next = add nuw nsw i64 %indvars.iv, 1
  %35 = load i32, ptr %15, align 4
  %36 = sext i32 %35 to i64
  %37 = icmp slt i64 %indvars.iv.next, %36
  br i1 %37, label %.lr.ph56, label %._crit_edge

.split:                                           ; preds = %30
  %38 = tail call ptr @__errno_location() #34
  %39 = load i32, ptr %38, align 4
  store i32 %39, ptr @save_format_errnumber, align 4
  %40 = call ptr (ptr, ...) @format_elog_string(ptr noundef nonnull @.str.17, ptr noundef %21)
  store ptr %40, ptr @GUC_check_errdetail_string, align 8
  call void @pfree(ptr noundef %6) #32
  %41 = load ptr, ptr %4, align 8
  call void @list_free(ptr noundef %41) #32
  br label %44

._crit_edge:                                      ; preds = %33, %.lr.ph, %13
  %.027.lcssa = phi i32 [ 0, %13 ], [ 0, %.lr.ph ], [ %34, %33 ]
  call void @pfree(ptr noundef %6) #32
  %42 = load ptr, ptr %4, align 8
  call void @list_free(ptr noundef %42) #32
  %43 = call ptr @guc_malloc(i32 noundef 21, i64 noundef 4) #32
  store i32 %.027.lcssa, ptr %43, align 4
  store ptr %43, ptr %1, align 8
  br label %44

44:                                               ; preds = %.split, %._crit_edge, %8
  %.0 = phi i1 [ true, %._crit_edge ], [ false, %.split ], [ false, %8 ]
  call void @llvm.lifetime.end.p0(i64 8, ptr nonnull %4) #32
  ret i1 %.0
}